target datalayout = "e-m:e-p270:32:32-p271:32:32-p272:64:64-i64:64-i128:128-f80:128-n8:16:32:64-S128"
target triple = "x86_64-pc-linux-gnu"

%struct.EVP_UPDATED_IV_TEST_st = type { ptr, i32 }

@testctx = internal global ptr null, align 8
@.str.18 = private unnamed_addr constant [33 x i8] c"../openssl/test/evp_extra_test.c\00", align 1
@.str.112 = private unnamed_addr constant [2 x i8] c"0\00", align 1
@testpropq = internal global ptr null, align 8
@.str.197 = private unnamed_addr constant [27 x i8] c"ctx = EVP_CIPHER_CTX_new()\00", align 1
@.str.601 = private unnamed_addr constant [10 x i8] c"CTX_ALLOC\00", align 1
@.str.606 = private unnamed_addr constant [35 x i8] c"EVP_CIPHER_CTX_set_padding(ctx, 0)\00", align 1
@.str.607 = private unnamed_addr constant [8 x i8] c"PADDING\00", align 1
@.str.615 = private unnamed_addr constant [14 x i8] c"CIPHER_UPDATE\00", align 1
@.str.618 = private unnamed_addr constant [52 x i8] c"EVP_CipherFinal_ex(ctx, outbuf + outlen1, &outlen2)\00", align 1
@.str.619 = private unnamed_addr constant [13 x i8] c"CIPHER_FINAL\00", align 1
@kCFBDefaultKey = internal constant [16 x i8] c"+~\15\16(\AE\D2\A6\AB\F7\15\88\09\CFO<", align 16
@iCFBIV = internal constant [16 x i8] c"\00\01\02\03\04\05\06\07\08\09\0A\0B\0C\0D\0E\0F", align 16
@cfbPlaintext = internal constant [16 x i8] c"k\C1\BE\E2.@\9F\96\E9=~\11s\93\17*", align 16
@.str.634 = private unnamed_addr constant [67 x i8] c"EVP_CipherInit_ex(ctx, type, NULL, kCFBDefaultKey, iCFBIV, t->enc)\00", align 1
@.str.635 = private unnamed_addr constant [12 x i8] c"CIPHER_INIT\00", align 1
@.str.681 = private unnamed_addr constant [34 x i8] c"cipher %s not supported, skipping\00", align 1
@.str.682 = private unnamed_addr constant [76 x i8] c"EVP_CipherUpdate(ctx, outbuf, &outlen1, cfbPlaintext, sizeof(cfbPlaintext))\00", align 1
@.str.683 = private unnamed_addr constant [67 x i8] c"EVP_CIPHER_CTX_get_updated_iv(ctx, updated_iv, sizeof(updated_iv))\00", align 1
@.str.684 = private unnamed_addr constant [26 x i8] c"CIPHER_CTX_GET_UPDATED_IV\00", align 1
@.str.685 = private unnamed_addr constant [7 x i8] c"iv_len\00", align 1
@.str.686 = private unnamed_addr constant [22 x i8] c"CIPHER_CTX_GET_IV_LEN\00", align 1
@.str.687 = private unnamed_addr constant [7 x i8] c"iCFBIV\00", align 1
@.str.688 = private unnamed_addr constant [11 x i8] c"updated_iv\00", align 1
@.str.689 = private unnamed_addr constant [15 x i8] c"IV_NOT_UPDATED\00", align 1
@.str.690 = private unnamed_addr constant [27 x i8] c"test_evp_updated_iv %d: %s\00", align 1

; Function Attrs: nounwind uwtable
define internal i32 @test_evp_updated_iv(i32 noundef %0) #0 {
  %2 = alloca i32, align 4
  %3 = alloca ptr, align 8
  %4 = alloca i32, align 4
  %5 = alloca i32, align 4
  %6 = alloca i32, align 4
  %7 = alloca [1024 x i8], align 16
  %8 = alloca ptr, align 8
  %9 = alloca ptr, align 8
  %10 = alloca [16 x i8], align 16
  %11 = alloca i32, align 4
  %12 = alloca ptr, align 8
  store i32 %0, ptr %2, align 4, !tbaa !9
  call void @llvm.lifetime.start.p0(i64 8, ptr %3) #8
  %13 = load i32, ptr %2, align 4, !tbaa !9
  %14 = sext i32 %13 to i64
  %15 = getelementptr inbounds [12 x %struct.EVP_UPDATED_IV_TEST_st], ptr @evp_updated_iv_tests, i64 0, i64 %14
  store ptr %15, ptr %3, align 8, !tbaa !54
  call void @llvm.lifetime.start.p0(i64 4, ptr %4) #8
  call void @llvm.lifetime.start.p0(i64 4, ptr %5) #8
  call void @llvm.lifetime.start.p0(i64 4, ptr %6) #8
  store i32 0, ptr %6, align 4, !tbaa !9
  call void @llvm.lifetime.start.p0(i64 1024, ptr %7) #8
  call void @llvm.lifetime.start.p0(i64 8, ptr %8) #8
  store ptr null, ptr %8, align 8, !tbaa !39
  call void @llvm.lifetime.start.p0(i64 8, ptr %9) #8
  store ptr null, ptr %9, align 8, !tbaa !41
  call void @llvm.lifetime.start.p0(i64 16, ptr %10) #8
  call void @llvm.lifetime.start.p0(i64 4, ptr %11) #8
  call void @llvm.lifetime.start.p0(i64 8, ptr %12) #8
  store ptr null, ptr %12, align 8, !tbaa !4
  %16 = call ptr @EVP_CIPHER_CTX_new()
  store ptr %16, ptr %8, align 8, !tbaa !39
  %17 = call i32 @test_ptr(ptr noundef @.str.18, i32 noundef 4981, ptr noundef @.str.197, ptr noundef %16)
  %18 = icmp ne i32 %17, 0
  br i1 %18, label %20, label %19

19:                                               ; preds = %1
  store ptr @.str.601, ptr %12, align 8, !tbaa !4
  br label %98

20:                                               ; preds = %1
  %21 = load ptr, ptr @testctx, align 8, !tbaa !11
  %22 = load ptr, ptr %3, align 8, !tbaa !54
  %23 = getelementptr inbounds nuw %struct.EVP_UPDATED_IV_TEST_st, ptr %22, i32 0, i32 0
  %24 = load ptr, ptr %23, align 8, !tbaa !119
  %25 = load ptr, ptr @testpropq, align 8, !tbaa !4
  %26 = call ptr @EVP_CIPHER_fetch(ptr noundef %21, ptr noundef %24, ptr noundef %25)
  store ptr %26, ptr %9, align 8, !tbaa !41
  %27 = icmp eq ptr %26, null
  br i1 %27, label %28, label %32

28:                                               ; preds = %20
  %29 = load ptr, ptr %3, align 8, !tbaa !54
  %30 = getelementptr inbounds nuw %struct.EVP_UPDATED_IV_TEST_st, ptr %29, i32 0, i32 0
  %31 = load ptr, ptr %30, align 8, !tbaa !119
  call void (ptr, i32, ptr, ...) @test_info(ptr noundef @.str.18, i32 noundef 4986, ptr noundef @.str.681, ptr noundef %31)
  br label %97

32:                                               ; preds = %20
  %33 = load ptr, ptr %8, align 8, !tbaa !39
  %34 = load ptr, ptr %9, align 8, !tbaa !41
  %35 = load ptr, ptr %3, align 8, !tbaa !54
  %36 = getelementptr inbounds nuw %struct.EVP_UPDATED_IV_TEST_st, ptr %35, i32 0, i32 1
  %37 = load i32, ptr %36, align 8, !tbaa !121
  %38 = call i32 @EVP_CipherInit_ex(ptr noundef %33, ptr noundef %34, ptr noundef null, ptr noundef @kCFBDefaultKey, ptr noundef @iCFBIV, i32 noundef %37)
  %39 = icmp ne i32 %38, 0
  %40 = zext i1 %39 to i32
  %41 = call i32 @test_true(ptr noundef @.str.18, i32 noundef 4990, ptr noundef @.str.634, i32 noundef %40)
  %42 = icmp ne i32 %41, 0
  br i1 %42, label %44, label %43

43:                                               ; preds = %32
  store ptr @.str.635, ptr %12, align 8, !tbaa !4
  br label %98

44:                                               ; preds = %32
  %45 = load ptr, ptr %8, align 8, !tbaa !39
  %46 = call i32 @EVP_CIPHER_CTX_set_padding(ptr noundef %45, i32 noundef 0)
  %47 = icmp ne i32 %46, 0
  %48 = zext i1 %47 to i32
  %49 = call i32 @test_true(ptr noundef @.str.18, i32 noundef 4994, ptr noundef @.str.606, i32 noundef %48)
  %50 = icmp ne i32 %49, 0
  br i1 %50, label %52, label %51

51:                                               ; preds = %44
  store ptr @.str.607, ptr %12, align 8, !tbaa !4
  br label %98

52:                                               ; preds = %44
  %53 = load ptr, ptr %8, align 8, !tbaa !39
  %54 = getelementptr inbounds [1024 x i8], ptr %7, i64 0, i64 0
  %55 = call i32 @EVP_CipherUpdate(ptr noundef %53, ptr noundef %54, ptr noundef %4, ptr noundef @cfbPlaintext, i32 noundef 16)
  %56 = icmp ne i32 %55, 0
  %57 = zext i1 %56 to i32
  %58 = call i32 @test_true(ptr noundef @.str.18, i32 noundef 4998, ptr noundef @.str.682, i32 noundef %57)
  %59 = icmp ne i32 %58, 0
  br i1 %59, label %61, label %60

60:                                               ; preds = %52
  store ptr @.str.615, ptr %12, align 8, !tbaa !4
  br label %98

61:                                               ; preds = %52
  %62 = load ptr, ptr %8, align 8, !tbaa !39
  %63 = getelementptr inbounds [16 x i8], ptr %10, i64 0, i64 0
  %64 = call i32 @EVP_CIPHER_CTX_get_updated_iv(ptr noundef %62, ptr noundef %63, i64 noundef 16)
  %65 = icmp ne i32 %64, 0
  %66 = zext i1 %65 to i32
  %67 = call i32 @test_true(ptr noundef @.str.18, i32 noundef 5002, ptr noundef @.str.683, i32 noundef %66)
  %68 = icmp ne i32 %67, 0
  br i1 %68, label %70, label %69

69:                                               ; preds = %61
  store ptr @.str.684, ptr %12, align 8, !tbaa !4
  br label %98

70:                                               ; preds = %61
  %71 = load ptr, ptr %8, align 8, !tbaa !39
  %72 = call i32 @EVP_CIPHER_CTX_get_iv_length(ptr noundef %71)
  store i32 %72, ptr %11, align 4, !tbaa !9
  %73 = load i32, ptr %11, align 4, !tbaa !9
  %74 = call i32 @test_int_ge(ptr noundef @.str.18, i32 noundef 5007, ptr noundef @.str.685, ptr noundef @.str.112, i32 noundef %73, i32 noundef 0)
  %75 = icmp ne i32 %74, 0
  br i1 %75, label %77, label %76

76:                                               ; preds = %70
  store ptr @.str.686, ptr %12, align 8, !tbaa !4
  br label %98

77:                                               ; preds = %70
  %78 = getelementptr inbounds [16 x i8], ptr %10, i64 0, i64 0
  %79 = load i32, ptr %11, align 4, !tbaa !9
  %80 = sext i32 %79 to i64
  %81 = call i32 @test_mem_ne(ptr noundef @.str.18, i32 noundef 5011, ptr noundef @.str.687, ptr noundef @.str.688, ptr noundef @iCFBIV, i64 noundef 16, ptr noundef %78, i64 noundef %80)
  %82 = icmp ne i32 %81, 0
  br i1 %82, label %84, label %83

83:                                               ; preds = %77
  store ptr @.str.689, ptr %12, align 8, !tbaa !4
  br label %98

84:                                               ; preds = %77
  %85 = load ptr, ptr %8, align 8, !tbaa !39
  %86 = getelementptr inbounds [1024 x i8], ptr %7, i64 0, i64 0
  %87 = load i32, ptr %4, align 4, !tbaa !9
  %88 = sext i32 %87 to i64
  %89 = getelementptr inbounds i8, ptr %86, i64 %88
  %90 = call i32 @EVP_CipherFinal_ex(ptr noundef %85, ptr noundef %89, ptr noundef %5)
  %91 = icmp ne i32 %90, 0
  %92 = zext i1 %91 to i32
  %93 = call i32 @test_true(ptr noundef @.str.18, i32 noundef 5015, ptr noundef @.str.618, i32 noundef %92)
  %94 = icmp ne i32 %93, 0
  br i1 %94, label %96, label %95

95:                                               ; preds = %84
  store ptr @.str.619, ptr %12, align 8, !tbaa !4
  br label %98

96:                                               ; preds = %84
  br label %97

97:                                               ; preds = %96, %28
  store i32 1, ptr %6, align 4, !tbaa !9
  br label %98

98:                                               ; preds = %97, %95, %83, %76, %69, %60, %51, %43, %19
  %99 = load ptr, ptr %12, align 8, !tbaa !4
  %100 = icmp ne ptr %99, null
  br i1 %100, label %101, label %104

101:                                              ; preds = %98
  %102 = load i32, ptr %2, align 4, !tbaa !9
  %103 = load ptr, ptr %12, align 8, !tbaa !4
  call void (ptr, i32, ptr, ...) @test_info(ptr noundef @.str.18, i32 noundef 5023, ptr noundef @.str.690, i32 noundef %102, ptr noundef %103)
  br label %104

104:                                              ; preds = %101, %98
  %105 = load ptr, ptr %8, align 8, !tbaa !39
  call void @EVP_CIPHER_CTX_free(ptr noundef %105)
  %106 = load ptr, ptr %9, align 8, !tbaa !41
  call void @EVP_CIPHER_free(ptr noundef %106)
  %107 = load i32, ptr %6, align 4, !tbaa !9
  call void @llvm.lifetime.end.p0(i64 8, ptr %12) #8
  call void @llvm.lifetime.end.p0(i64 4, ptr %11) #8
  call void @llvm.lifetime.end.p0(i64 16, ptr %10) #8
  call void @llvm.lifetime.end.p0(i64 8, ptr %9) #8
  call void @llvm.lifetime.end.p0(i64 8, ptr %8) #8
  call void @llvm.lifetime.end.p0(i64 1024, ptr %7) #8
  call void @llvm.lifetime.end.p0(i64 4, ptr %6) #8
  call void @llvm.lifetime.end.p0(i64 4, ptr %5) #8
  call void @llvm.lifetime.end.p0(i64 4, ptr %4) #8
  call void @llvm.lifetime.end.p0(i64 8, ptr %3) #8
  ret i32 %107
}