; Function Attrs: nounwind uwtable
define internal range(i32 0, 2) i32 @test_evp_updated_iv(i32 noundef %0) #1 {
  %2 = alloca i32, align 4
  %3 = alloca i32, align 4
  %4 = alloca [1024 x i8], align 16
  %5 = alloca [16 x i8], align 16
  %6 = sext i32 %0 to i64
  %7 = getelementptr inbounds [12 x %struct.EVP_UPDATED_IV_TEST_st], ptr @evp_updated_iv_tests, i64 0, i64 %6
  call void @llvm.lifetime.start.p0(i64 4, ptr nonnull %2) #9
  call void @llvm.lifetime.start.p0(i64 4, ptr nonnull %3) #9
  call void @llvm.lifetime.start.p0(i64 1024, ptr nonnull %4) #9
  call void @llvm.lifetime.start.p0(i64 16, ptr nonnull %5) #9
  %8 = tail call ptr @EVP_CIPHER_CTX_new() #9
  %9 = tail call i32 @test_ptr(ptr noundef nonnull @.str.18, i32 noundef 4981, ptr noundef nonnull @.str.197, ptr noundef %8) #9
  %.not = icmp eq i32 %9, 0
  br i1 %.not, label %52, label %10

10:                                               ; preds = %1
  %11 = load ptr, ptr @testctx, align 8, !tbaa !6
  %12 = load ptr, ptr %7, align 16, !tbaa !78
  %13 = tail call ptr @EVP_CIPHER_fetch(ptr noundef %11, ptr noundef %12, ptr noundef null) #9
  %14 = icmp eq ptr %13, null
  br i1 %14, label %15, label %16

15:                                               ; preds = %10
  tail call void (ptr, i32, ptr, ...) @test_info(ptr noundef nonnull @.str.18, i32 noundef 4986, ptr noundef nonnull @.str.681, ptr noundef %12) #9
  br label %53

16:                                               ; preds = %10
  %17 = getelementptr inbounds nuw i8, ptr %7, i64 8
  %18 = load i32, ptr %17, align 8, !tbaa !80
  %19 = tail call i32 @EVP_CipherInit_ex(ptr noundef %8, ptr noundef nonnull %13, ptr noundef null, ptr noundef nonnull @kCFBDefaultKey, ptr noundef nonnull @__const.test_cipher_with_engine.keyiv, i32 noundef %18) #9
  %20 = icmp ne i32 %19, 0
  %21 = zext i1 %20 to i32
  %22 = tail call i32 @test_true(ptr noundef nonnull @.str.18, i32 noundef 4990, ptr noundef nonnull @.str.634, i32 noundef %21) #9
  %.not21 = icmp eq i32 %22, 0
  br i1 %.not21, label %52, label %23

23:                                               ; preds = %16
  %24 = tail call i32 @EVP_CIPHER_CTX_set_padding(ptr noundef %8, i32 noundef 0) #9
  %25 = icmp ne i32 %24, 0
  %26 = zext i1 %25 to i32
  %27 = tail call i32 @test_true(ptr noundef nonnull @.str.18, i32 noundef 4994, ptr noundef nonnull @.str.606, i32 noundef %26) #9
  %.not22 = icmp eq i32 %27, 0
  br i1 %.not22, label %52, label %28

28:                                               ; preds = %23
  %29 = call i32 @EVP_CipherUpdate(ptr noundef %8, ptr noundef nonnull %4, ptr noundef nonnull %2, ptr noundef nonnull @cfbPlaintext, i32 noundef 16) #9
  %30 = icmp ne i32 %29, 0
  %31 = zext i1 %30 to i32
  %32 = call i32 @test_true(ptr noundef nonnull @.str.18, i32 noundef 4998, ptr noundef nonnull @.str.682, i32 noundef %31) #9
  %.not23 = icmp eq i32 %32, 0
  br i1 %.not23, label %52, label %33

33:                                               ; preds = %28
  %34 = call i32 @EVP_CIPHER_CTX_get_updated_iv(ptr noundef %8, ptr noundef nonnull %5, i64 noundef 16) #9
  %35 = icmp ne i32 %34, 0
  %36 = zext i1 %35 to i32
  %37 = call i32 @test_true(ptr noundef nonnull @.str.18, i32 noundef 5002, ptr noundef nonnull @.str.683, i32 noundef %36) #9
  %.not24 = icmp eq i32 %37, 0
  br i1 %.not24, label %52, label %38

38:                                               ; preds = %33
  %39 = call i32 @EVP_CIPHER_CTX_get_iv_length(ptr noundef %8) #9
  %40 = call i32 @test_int_ge(ptr noundef nonnull @.str.18, i32 noundef 5007, ptr noundef nonnull @.str.685, ptr noundef nonnull @.str.112, i32 noundef %39, i32 noundef 0) #9
  %.not25 = icmp eq i32 %40, 0
  br i1 %.not25, label %52, label %41

41:                                               ; preds = %38
  %42 = sext i32 %39 to i64
  %43 = call i32 @test_mem_ne(ptr noundef nonnull @.str.18, i32 noundef 5011, ptr noundef nonnull @.str.687, ptr noundef nonnull @.str.688, ptr noundef nonnull @__const.test_cipher_with_engine.keyiv, i64 noundef 16, ptr noundef nonnull %5, i64 noundef %42) #9
  %.not26 = icmp eq i32 %43, 0
  br i1 %.not26, label %52, label %44

44:                                               ; preds = %41
  %45 = load i32, ptr %2, align 4, !tbaa !25
  %46 = sext i32 %45 to i64
  %47 = getelementptr inbounds i8, ptr %4, i64 %46
  %48 = call i32 @EVP_CipherFinal_ex(ptr noundef %8, ptr noundef nonnull %47, ptr noundef nonnull %3) #9
  %49 = icmp ne i32 %48, 0
  %50 = zext i1 %49 to i32
  %51 = call i32 @test_true(ptr noundef nonnull @.str.18, i32 noundef 5015, ptr noundef nonnull @.str.618, i32 noundef %50) #9
  %.not27 = icmp eq i32 %51, 0
  br i1 %.not27, label %52, label %53

52:                                               ; preds = %1, %16, %23, %28, %33, %38, %41, %44
  %.019.ph = phi ptr [ %13, %44 ], [ %13, %41 ], [ %13, %38 ], [ %13, %33 ], [ %13, %28 ], [ %13, %23 ], [ %13, %16 ], [ null, %1 ]
  %.0.ph = phi ptr [ @.str.619, %44 ], [ @.str.689, %41 ], [ @.str.686, %38 ], [ @.str.684, %33 ], [ @.str.615, %28 ], [ @.str.607, %23 ], [ @.str.635, %16 ], [ @.str.601, %1 ]
  call void (ptr, i32, ptr, ...) @test_info(ptr noundef nonnull @.str.18, i32 noundef 5023, ptr noundef nonnull @.str.690, i32 noundef %0, ptr noundef nonnull %.0.ph) #9
  br label %53

53:                                               ; preds = %44, %15, %52
  %.01836 = phi i32 [ 0, %52 ], [ 1, %15 ], [ 1, %44 ]
  %.01934 = phi ptr [ %.019.ph, %52 ], [ null, %15 ], [ %13, %44 ]
  call void @EVP_CIPHER_CTX_free(ptr noundef %8) #9
  call void @EVP_CIPHER_free(ptr noundef %.01934) #9
  call void @llvm.lifetime.end.p0(i64 16, ptr nonnull %5) #9
  call void @llvm.lifetime.end.p0(i64 1024, ptr nonnull %4) #9
  call void @llvm.lifetime.end.p0(i64 4, ptr nonnull %3) #9
  call void @llvm.lifetime.end.p0(i64 4, ptr nonnull %2) #9
  ret i32 %.01836
}